target datalayout = "e-m:e-p270:32:32-p271:32:32-p272:64:64-i64:64-i128:128-f80:128-n8:16:32:64-S128"
target triple = "x86_64-pc-linux-gnu"

%"class.std::__cxx11::basic_string" = type { %"struct.std::__cxx11::basic_string<char>::_Alloc_hider", i64, %union.anon }
%"struct.std::__cxx11::basic_string<char>::_Alloc_hider" = type { ptr }
%union.anon = type { i64, [8 x i8] }
%"class.Assimp::Ogre::SubMesh" = type { %"class.Assimp::Ogre::ISubMesh.base", ptr, ptr }
%"class.Assimp::Ogre::ISubMesh.base" = type <{ i32, [4 x i8], %"class.std::__cxx11::basic_string", %"class.std::__cxx11::basic_string", %"class.std::__cxx11::basic_string", %"class.std::__cxx11::basic_string", i32, i8, [3 x i8], i32 }>

@_ZN6Assimp4Ogre10VertexDataD1Ev = hidden unnamed_addr alias void (ptr), ptr @_ZN6Assimp4Ogre10VertexDataD2Ev
@_ZN6Assimp4Ogre9IndexDataD1Ev = hidden unnamed_addr alias void (ptr), ptr @_ZN6Assimp4Ogre9IndexDataD2Ev

; Function Attrs: mustprogress nounwind uwtable
define hidden void @_ZN6Assimp4Ogre7SubMesh5ResetEv(ptr noundef nonnull align 8 dereferenceable(168) %0) #0 align 2 {
  %2 = alloca ptr, align 8
  store ptr %0, ptr %2, align 8
  %3 = load ptr, ptr %2, align 8
  %4 = getelementptr inbounds nuw %"class.Assimp::Ogre::SubMesh", ptr %3, i32 0, i32 1
  %5 = load ptr, ptr %4, align 8
  %6 = icmp eq ptr %5, null
  br i1 %6, label %8, label %7

7:                                                ; preds = %1
  call void @_ZN6Assimp4Ogre10VertexDataD1Ev(ptr noundef nonnull align 8 dereferenceable(200) %5) #20
  call void @_ZdlPvm(ptr noundef %5, i64 noundef 200) #23
  br label %8

8:                                                ; preds = %7, %1
  %9 = getelementptr inbounds nuw %"class.Assimp::Ogre::SubMesh", ptr %3, i32 0, i32 1
  store ptr null, ptr %9, align 8
  %10 = getelementptr inbounds nuw %"class.Assimp::Ogre::SubMesh", ptr %3, i32 0, i32 2
  %11 = load ptr, ptr %10, align 8
  %12 = icmp eq ptr %11, null
  br i1 %12, label %14, label %13

13:                                               ; preds = %8
  call void @_ZN6Assimp4Ogre9IndexDataD1Ev(ptr noundef nonnull align 8 dereferenceable(32) %11) #20
  call void @_ZdlPvm(ptr noundef %11, i64 noundef 32) #23
  br label %14

14:                                               ; preds = %13, %8
  %15 = getelementptr inbounds nuw %"class.Assimp::Ogre::SubMesh", ptr %3, i32 0, i32 2
  store ptr null, ptr %15, align 8
  ret void
}