; Function Attrs: mustprogress nounwind uwtable
define hidden void @_ZN6Assimp4Ogre7SubMesh5ResetEv(ptr noundef nonnull align 8 captures(none) dereferenceable(168) %0) local_unnamed_addr #6 align 2 {
  %2 = getelementptr inbounds nuw i8, ptr %0, i64 152
  %3 = load ptr, ptr %2, align 8
  %4 = icmp eq ptr %3, null
  br i1 %4, label %6, label %5

5:                                                ; preds = %1
  tail call void @_ZN6Assimp4Ogre10VertexDataD2Ev(ptr noundef nonnull align 8 dereferenceable(200) %3) #31
  tail call void @_ZdlPvm(ptr noundef nonnull %3, i64 noundef 200) #34
  br label %6

6:                                                ; preds = %5, %1
  store ptr null, ptr %2, align 8
  %7 = getelementptr inbounds nuw i8, ptr %0, i64 160
  %8 = load ptr, ptr %7, align 8
  %9 = icmp eq ptr %8, null
  br i1 %9, label %11, label %10

10:                                               ; preds = %6
  tail call void @_ZN6Assimp4Ogre9IndexDataD2Ev(ptr noundef nonnull align 8 dereferenceable(32) %8) #31
  tail call void @_ZdlPvm(ptr noundef nonnull %8, i64 noundef 32) #34
  br label %11

11:                                               ; preds = %10, %6
  store ptr null, ptr %7, align 8
  ret void
}